target datalayout = "e-m:e-p270:32:32-p271:32:32-p272:64:64-i64:64-i128:128-f80:128-n8:16:32:64-S128"
target triple = "x86_64-pc-linux-gnu"

%"class.llvm::itanium_demangle::OutputBuffer" = type <{ ptr, i64, i64, i32, i32, i32, [4 x i8] }>
%"class.std::basic_string_view" = type { i64, ptr }
%"struct.llvm::ms_demangle::Node.base" = type <{ ptr, i32 }>
%"struct.llvm::ms_demangle::IdentifierNode" = type { %"struct.llvm::ms_demangle::Node.base", ptr }
%"struct.llvm::ms_demangle::VcallThunkIdentifierNode" = type { %"struct.llvm::ms_demangle::IdentifierNode", i64 }
%"struct.std::array.0" = type { [21 x i8] }

@.str.144 = private unnamed_addr constant [9 x i8] c"`vcall'{\00", align 1
@.str.145 = private unnamed_addr constant [10 x i8] c", {flat}}\00", align 1

; Function Attrs: mustprogress nounwind uwtable
define linkonce_odr hidden noundef ptr @_ZNSt14__array_traitsIcLm21EE6_S_ptrERA21_Kc(ptr noundef nonnull align 1 dereferenceable(21) %0) #0 comdat align 2 {
  %2 = alloca ptr, align 8
  store ptr %0, ptr %2, align 8
  %3 = load ptr, ptr %2, align 8
  %4 = getelementptr inbounds [21 x i8], ptr %3, i64 0, i64 0
  ret ptr %4
}

; Function Attrs: mustprogress nounwind uwtable
define linkonce_odr hidden void @_ZNSt17basic_string_viewIcSt11char_traitsIcEEC2EPKcm(ptr noundef nonnull align 8 dereferenceable(16) %0, ptr noundef %1, i64 noundef %2) unnamed_addr #0 comdat align 2 {
  %4 = alloca ptr, align 8
  %5 = alloca ptr, align 8
  %6 = alloca i64, align 8
  store ptr %0, ptr %4, align 8
  store ptr %1, ptr %5, align 8
  store i64 %2, ptr %6, align 8
  %7 = load ptr, ptr %4, align 8
  %8 = getelementptr inbounds nuw %"class.std::basic_string_view", ptr %7, i32 0, i32 0
  %9 = load i64, ptr %6, align 8
  store i64 %9, ptr %8, align 8
  %10 = getelementptr inbounds nuw %"class.std::basic_string_view", ptr %7, i32 0, i32 1
  %11 = load ptr, ptr %5, align 8
  store ptr %11, ptr %10, align 8
  ret void
}

; Function Attrs: mustprogress nounwind willreturn memory(none) uwtable
define linkonce_odr hidden noundef i64 @_ZNKSt5arrayIcLm21EE4sizeEv(ptr noundef nonnull align 1 dereferenceable(21) %0) #5 comdat align 2 {
  %2 = alloca ptr, align 8
  store ptr %0, ptr %2, align 8
  ret i64 21
}

; Function Attrs: mustprogress nounwind willreturn memory(none) uwtable
define linkonce_odr hidden noundef ptr @_ZNSt5arrayIcLm21EE4dataEv(ptr noundef nonnull align 1 dereferenceable(21) %0) #5 comdat align 2 {
  %2 = alloca ptr, align 8
  store ptr %0, ptr %2, align 8
  %3 = load ptr, ptr %2, align 8
  %4 = getelementptr inbounds nuw %"struct.std::array.0", ptr %3, i32 0, i32 0
  %5 = call noundef ptr @_ZNSt14__array_traitsIcLm21EE6_S_ptrERA21_Kc(ptr noundef nonnull align 1 dereferenceable(21) %4) #10
  ret ptr %5
}

; Function Attrs: mustprogress nounwind uwtable
define linkonce_odr hidden noundef nonnull align 8 dereferenceable(36) ptr @_ZN4llvm16itanium_demangle12OutputBuffer13writeUnsignedEmb(ptr noundef nonnull align 8 dereferenceable(36) %0, i64 noundef %1, i1 noundef zeroext %2) #0 comdat align 2 {
  %4 = alloca ptr, align 8
  %5 = alloca i64, align 8
  %6 = alloca i8, align 1
  %7 = alloca %"struct.std::array.0", align 1
  %8 = alloca ptr, align 8
  %9 = alloca %"class.std::basic_string_view", align 8
  store ptr %0, ptr %4, align 8
  store i64 %1, ptr %5, align 8
  %10 = zext i1 %2 to i8
  store i8 %10, ptr %6, align 1
  %11 = load ptr, ptr %4, align 8
  %12 = call noundef ptr @_ZNSt5arrayIcLm21EE4dataEv(ptr noundef nonnull align 1 dereferenceable(21) %7) #15
  %13 = call noundef i64 @_ZNKSt5arrayIcLm21EE4sizeEv(ptr noundef nonnull align 1 dereferenceable(21) %7) #15
  %14 = getelementptr inbounds i8, ptr %12, i64 %13
  store ptr %14, ptr %8, align 8
  br label %15

15:                                               ; preds = %24, %3
  %16 = load i64, ptr %5, align 8
  %17 = urem i64 %16, 10
  %18 = add i64 48, %17
  %19 = trunc i64 %18 to i8
  %20 = load ptr, ptr %8, align 8
  %21 = getelementptr inbounds i8, ptr %20, i32 -1
  store ptr %21, ptr %8, align 8
  store i8 %19, ptr %21, align 1
  %22 = load i64, ptr %5, align 8
  %23 = udiv i64 %22, 10
  store i64 %23, ptr %5, align 8
  br label %24

24:                                               ; preds = %15
  %25 = load i64, ptr %5, align 8
  %26 = icmp ne i64 %25, 0
  br i1 %26, label %15, label %27, !llvm.loop !8

27:                                               ; preds = %24
  %28 = load i8, ptr %6, align 1
  %29 = trunc i8 %28 to i1
  br i1 %29, label %30, label %33

30:                                               ; preds = %27
  %31 = load ptr, ptr %8, align 8
  %32 = getelementptr inbounds i8, ptr %31, i32 -1
  store ptr %32, ptr %8, align 8
  store i8 45, ptr %32, align 1
  br label %33

33:                                               ; preds = %30, %27
  %34 = load ptr, ptr %8, align 8
  %35 = call noundef ptr @_ZNSt5arrayIcLm21EE4dataEv(ptr noundef nonnull align 1 dereferenceable(21) %7) #15
  %36 = call noundef i64 @_ZNKSt5arrayIcLm21EE4sizeEv(ptr noundef nonnull align 1 dereferenceable(21) %7) #15
  %37 = getelementptr inbounds i8, ptr %35, i64 %36
  %38 = load ptr, ptr %8, align 8
  %39 = ptrtoint ptr %37 to i64
  %40 = ptrtoint ptr %38 to i64
  %41 = sub i64 %39, %40
  call void @_ZNSt17basic_string_viewIcSt11char_traitsIcEEC2EPKcm(ptr noundef nonnull align 8 dereferenceable(16) %9, ptr noundef %34, i64 noundef %41) #10
  %42 = getelementptr inbounds nuw { i64, ptr }, ptr %9, i32 0, i32 0
  %43 = load i64, ptr %42, align 8
  %44 = getelementptr inbounds nuw { i64, ptr }, ptr %9, i32 0, i32 1
  %45 = load ptr, ptr %44, align 8
  %46 = call noundef nonnull align 8 dereferenceable(36) ptr @_ZN4llvm16itanium_demangle12OutputBufferpLESt17basic_string_viewIcSt11char_traitsIcEE(ptr noundef nonnull align 8 dereferenceable(36) %11, i64 %43, ptr %45)
  ret ptr %46
}

; Function Attrs: mustprogress nounwind uwtable
define linkonce_odr hidden noundef ptr @_ZNKSt17basic_string_viewIcSt11char_traitsIcEE5beginEv(ptr noundef nonnull align 8 dereferenceable(16) %0) #0 comdat align 2 {
  %2 = alloca ptr, align 8
  store ptr %0, ptr %2, align 8
  %3 = load ptr, ptr %2, align 8
  %4 = getelementptr inbounds nuw %"class.std::basic_string_view", ptr %3, i32 0, i32 1
  %5 = load ptr, ptr %4, align 8
  ret ptr %5
}

; Function Attrs: mustprogress nounwind uwtable
define linkonce_odr hidden void @_ZN4llvm16itanium_demangle12OutputBuffer4growEm(ptr noundef nonnull align 8 dereferenceable(36) %0, i64 noundef %1) #0 comdat align 2 {
  %3 = alloca ptr, align 8
  %4 = alloca i64, align 8
  %5 = alloca i64, align 8
  store ptr %0, ptr %3, align 8
  store i64 %1, ptr %4, align 8
  %6 = load ptr, ptr %3, align 8
  %7 = load i64, ptr %4, align 8
  %8 = getelementptr inbounds nuw %"class.llvm::itanium_demangle::OutputBuffer", ptr %6, i32 0, i32 1
  %9 = load i64, ptr %8, align 8
  %10 = add i64 %7, %9
  store i64 %10, ptr %5, align 8
  %11 = load i64, ptr %5, align 8
  %12 = getelementptr inbounds nuw %"class.llvm::itanium_demangle::OutputBuffer", ptr %6, i32 0, i32 2
  %13 = load i64, ptr %12, align 8
  %14 = icmp ugt i64 %11, %13
  br i1 %14, label %15, label %40

15:                                               ; preds = %2
  %16 = load i64, ptr %5, align 8
  %17 = add i64 %16, 992
  store i64 %17, ptr %5, align 8
  %18 = getelementptr inbounds nuw %"class.llvm::itanium_demangle::OutputBuffer", ptr %6, i32 0, i32 2
  %19 = load i64, ptr %18, align 8
  %20 = mul i64 %19, 2
  store i64 %20, ptr %18, align 8
  %21 = getelementptr inbounds nuw %"class.llvm::itanium_demangle::OutputBuffer", ptr %6, i32 0, i32 2
  %22 = load i64, ptr %21, align 8
  %23 = load i64, ptr %5, align 8
  %24 = icmp ult i64 %22, %23
  br i1 %24, label %25, label %28

25:                                               ; preds = %15
  %26 = load i64, ptr %5, align 8
  %27 = getelementptr inbounds nuw %"class.llvm::itanium_demangle::OutputBuffer", ptr %6, i32 0, i32 2
  store i64 %26, ptr %27, align 8
  br label %28

28:                                               ; preds = %25, %15
  %29 = getelementptr inbounds nuw %"class.llvm::itanium_demangle::OutputBuffer", ptr %6, i32 0, i32 0
  %30 = load ptr, ptr %29, align 8
  %31 = getelementptr inbounds nuw %"class.llvm::itanium_demangle::OutputBuffer", ptr %6, i32 0, i32 2
  %32 = load i64, ptr %31, align 8
  %33 = call ptr @realloc(ptr noundef %30, i64 noundef %32) #13
  %34 = getelementptr inbounds nuw %"class.llvm::itanium_demangle::OutputBuffer", ptr %6, i32 0, i32 0
  store ptr %33, ptr %34, align 8
  %35 = getelementptr inbounds nuw %"class.llvm::itanium_demangle::OutputBuffer", ptr %6, i32 0, i32 0
  %36 = load ptr, ptr %35, align 8
  %37 = icmp eq ptr %36, null
  br i1 %37, label %38, label %39

38:                                               ; preds = %28
  call void @abort() #14
  unreachable

39:                                               ; preds = %28
  br label %40

40:                                               ; preds = %39, %2
  ret void
}

; Function Attrs: mustprogress nounwind uwtable
define linkonce_odr hidden noundef i64 @_ZNKSt17basic_string_viewIcSt11char_traitsIcEE4sizeEv(ptr noundef nonnull align 8 dereferenceable(16) %0) #0 comdat align 2 {
  %2 = alloca ptr, align 8
  store ptr %0, ptr %2, align 8
  %3 = load ptr, ptr %2, align 8
  %4 = getelementptr inbounds nuw %"class.std::basic_string_view", ptr %3, i32 0, i32 0
  %5 = load i64, ptr %4, align 8
  ret i64 %5
}

; Function Attrs: mustprogress nounwind uwtable
define linkonce_odr hidden noundef nonnull align 8 dereferenceable(36) ptr @_ZN4llvm16itanium_demangle12OutputBufferlsEy(ptr noundef nonnull align 8 dereferenceable(36) %0, i64 noundef %1) #0 comdat align 2 {
  %3 = alloca ptr, align 8
  %4 = alloca i64, align 8
  store ptr %0, ptr %3, align 8
  store i64 %1, ptr %4, align 8
  %5 = load ptr, ptr %3, align 8
  %6 = load i64, ptr %4, align 8
  %7 = call noundef nonnull align 8 dereferenceable(36) ptr @_ZN4llvm16itanium_demangle12OutputBuffer13writeUnsignedEmb(ptr noundef nonnull align 8 dereferenceable(36) %5, i64 noundef %6, i1 noundef zeroext false)
  ret ptr %7
}

; Function Attrs: mustprogress nounwind uwtable
define linkonce_odr hidden noundef nonnull align 8 dereferenceable(36) ptr @_ZN4llvm16itanium_demangle12OutputBufferpLESt17basic_string_viewIcSt11char_traitsIcEE(ptr noundef nonnull align 8 dereferenceable(36) %0, i64 %1, ptr %2) #0 comdat align 2 {
  %4 = alloca %"class.std::basic_string_view", align 8
  %5 = alloca ptr, align 8
  %6 = alloca i64, align 8
  %7 = getelementptr inbounds nuw { i64, ptr }, ptr %4, i32 0, i32 0
  store i64 %1, ptr %7, align 8
  %8 = getelementptr inbounds nuw { i64, ptr }, ptr %4, i32 0, i32 1
  store ptr %2, ptr %8, align 8
  store ptr %0, ptr %5, align 8
  %9 = load ptr, ptr %5, align 8
  %10 = call noundef i64 @_ZNKSt17basic_string_viewIcSt11char_traitsIcEE4sizeEv(ptr noundef nonnull align 8 dereferenceable(16) %4) #10
  store i64 %10, ptr %6, align 8
  %11 = load i64, ptr %6, align 8
  %12 = icmp ne i64 %11, 0
  br i1 %12, label %13, label %26

13:                                               ; preds = %3
  %14 = load i64, ptr %6, align 8
  call void @_ZN4llvm16itanium_demangle12OutputBuffer4growEm(ptr noundef nonnull align 8 dereferenceable(36) %9, i64 noundef %14)
  %15 = getelementptr inbounds nuw %"class.llvm::itanium_demangle::OutputBuffer", ptr %9, i32 0, i32 0
  %16 = load ptr, ptr %15, align 8
  %17 = getelementptr inbounds nuw %"class.llvm::itanium_demangle::OutputBuffer", ptr %9, i32 0, i32 1
  %18 = load i64, ptr %17, align 8
  %19 = getelementptr inbounds i8, ptr %16, i64 %18
  %20 = call noundef ptr @_ZNKSt17basic_string_viewIcSt11char_traitsIcEE5beginEv(ptr noundef nonnull align 8 dereferenceable(16) %4) #10
  %21 = load i64, ptr %6, align 8
  call void @llvm.memcpy.p0.p0.i64(ptr align 1 %19, ptr align 1 %20, i64 %21, i1 false)
  %22 = load i64, ptr %6, align 8
  %23 = getelementptr inbounds nuw %"class.llvm::itanium_demangle::OutputBuffer", ptr %9, i32 0, i32 1
  %24 = load i64, ptr %23, align 8
  %25 = add i64 %24, %22
  store i64 %25, ptr %23, align 8
  br label %26

26:                                               ; preds = %13, %3
  ret ptr %9
}

; Function Attrs: mustprogress nounwind uwtable
define linkonce_odr hidden noundef i64 @_ZNSt11char_traitsIcE6lengthEPKc(ptr noundef %0) #0 comdat align 2 {
  %2 = alloca ptr, align 8
  store ptr %0, ptr %2, align 8
  %3 = load ptr, ptr %2, align 8
  %4 = call i64 @strlen(ptr noundef %3) #10
  ret i64 %4
}

; Function Attrs: mustprogress nounwind uwtable
define linkonce_odr hidden noundef nonnull align 8 dereferenceable(36) ptr @_ZN4llvm16itanium_demangle12OutputBufferlsEm(ptr noundef nonnull align 8 dereferenceable(36) %0, i64 noundef %1) #0 comdat align 2 {
  %3 = alloca ptr, align 8
  %4 = alloca i64, align 8
  store ptr %0, ptr %3, align 8
  store i64 %1, ptr %4, align 8
  %5 = load ptr, ptr %3, align 8
  %6 = load i64, ptr %4, align 8
  %7 = call noundef nonnull align 8 dereferenceable(36) ptr @_ZN4llvm16itanium_demangle12OutputBufferlsEy(ptr noundef nonnull align 8 dereferenceable(36) %5, i64 noundef %6)
  ret ptr %7
}

; Function Attrs: mustprogress nounwind uwtable
define linkonce_odr hidden noundef nonnull align 8 dereferenceable(36) ptr @_ZN4llvm16itanium_demangle12OutputBufferlsESt17basic_string_viewIcSt11char_traitsIcEE(ptr noundef nonnull align 8 dereferenceable(36) %0, i64 %1, ptr %2) #0 comdat align 2 {
  %4 = alloca %"class.std::basic_string_view", align 8
  %5 = alloca ptr, align 8
  %6 = alloca %"class.std::basic_string_view", align 8
  %7 = getelementptr inbounds nuw { i64, ptr }, ptr %4, i32 0, i32 0
  store i64 %1, ptr %7, align 8
  %8 = getelementptr inbounds nuw { i64, ptr }, ptr %4, i32 0, i32 1
  store ptr %2, ptr %8, align 8
  store ptr %0, ptr %5, align 8
  %9 = load ptr, ptr %5, align 8
  call void @llvm.memcpy.p0.p0.i64(ptr align 8 %6, ptr align 8 %4, i64 16, i1 false)
  %10 = getelementptr inbounds nuw { i64, ptr }, ptr %6, i32 0, i32 0
  %11 = load i64, ptr %10, align 8
  %12 = getelementptr inbounds nuw { i64, ptr }, ptr %6, i32 0, i32 1
  %13 = load ptr, ptr %12, align 8
  %14 = call noundef nonnull align 8 dereferenceable(36) ptr @_ZN4llvm16itanium_demangle12OutputBufferpLESt17basic_string_viewIcSt11char_traitsIcEE(ptr noundef nonnull align 8 dereferenceable(36) %9, i64 %11, ptr %13)
  ret ptr %14
}

; Function Attrs: mustprogress nounwind uwtable
define linkonce_odr hidden void @_ZNSt17basic_string_viewIcSt11char_traitsIcEEC2EPKc(ptr noundef nonnull align 8 dereferenceable(16) %0, ptr noundef nonnull %1) unnamed_addr #0 comdat align 2 {
  %3 = alloca ptr, align 8
  %4 = alloca ptr, align 8
  store ptr %0, ptr %3, align 8
  store ptr %1, ptr %4, align 8
  %5 = load ptr, ptr %3, align 8
  %6 = getelementptr inbounds nuw %"class.std::basic_string_view", ptr %5, i32 0, i32 0
  %7 = load ptr, ptr %4, align 8
  %8 = call noundef i64 @_ZNSt11char_traitsIcE6lengthEPKc(ptr noundef %7)
  store i64 %8, ptr %6, align 8
  %9 = getelementptr inbounds nuw %"class.std::basic_string_view", ptr %5, i32 0, i32 1
  %10 = load ptr, ptr %4, align 8
  store ptr %10, ptr %9, align 8
  ret void
}

; Function Attrs: mustprogress nounwind uwtable
define dso_local void @_ZNK4llvm11ms_demangle24VcallThunkIdentifierNode6outputERNS_16itanium_demangle12OutputBufferENS0_11OutputFlagsE(ptr noundef nonnull align 8 dereferenceable(32) %0, ptr noundef nonnull align 8 dereferenceable(36) %1, i32 noundef %2) unnamed_addr #0 align 2 {
  %4 = alloca ptr, align 8
  %5 = alloca ptr, align 8
  %6 = alloca i32, align 4
  %7 = alloca %"class.std::basic_string_view", align 8
  %8 = alloca %"class.std::basic_string_view", align 8
  store ptr %0, ptr %4, align 8
  store ptr %1, ptr %5, align 8
  store i32 %2, ptr %6, align 4
  %9 = load ptr, ptr %4, align 8
  %10 = load ptr, ptr %5, align 8
  call void @_ZNSt17basic_string_viewIcSt11char_traitsIcEEC2EPKc(ptr noundef nonnull align 8 dereferenceable(16) %7, ptr noundef @.str.144) #10
  %11 = getelementptr inbounds nuw { i64, ptr }, ptr %7, i32 0, i32 0
  %12 = load i64, ptr %11, align 8
  %13 = getelementptr inbounds nuw { i64, ptr }, ptr %7, i32 0, i32 1
  %14 = load ptr, ptr %13, align 8
  %15 = call noundef nonnull align 8 dereferenceable(36) ptr @_ZN4llvm16itanium_demangle12OutputBufferlsESt17basic_string_viewIcSt11char_traitsIcEE(ptr noundef nonnull align 8 dereferenceable(36) %10, i64 %12, ptr %14)
  %16 = getelementptr inbounds nuw %"struct.llvm::ms_demangle::VcallThunkIdentifierNode", ptr %9, i32 0, i32 1
  %17 = load i64, ptr %16, align 8
  %18 = call noundef nonnull align 8 dereferenceable(36) ptr @_ZN4llvm16itanium_demangle12OutputBufferlsEm(ptr noundef nonnull align 8 dereferenceable(36) %15, i64 noundef %17)
  call void @_ZNSt17basic_string_viewIcSt11char_traitsIcEEC2EPKc(ptr noundef nonnull align 8 dereferenceable(16) %8, ptr noundef @.str.145) #10
  %19 = getelementptr inbounds nuw { i64, ptr }, ptr %8, i32 0, i32 0
  %20 = load i64, ptr %19, align 8
  %21 = getelementptr inbounds nuw { i64, ptr }, ptr %8, i32 0, i32 1
  %22 = load ptr, ptr %21, align 8
  %23 = call noundef nonnull align 8 dereferenceable(36) ptr @_ZN4llvm16itanium_demangle12OutputBufferlsESt17basic_string_viewIcSt11char_traitsIcEE(ptr noundef nonnull align 8 dereferenceable(36) %18, i64 %20, ptr %22)
  ret void
}