; Function Attrs: mustprogress nounwind uwtable
define dso_local void @_ZNK4llvm11ms_demangle24VcallThunkIdentifierNode6outputERNS_16itanium_demangle12OutputBufferENS0_11OutputFlagsE(ptr nocapture noundef nonnull readonly align 8 dereferenceable(32) %0, ptr nocapture noundef nonnull align 8 dereferenceable(36) %1, i32 %2) unnamed_addr #0 align 2 {
  %4 = alloca %"struct.std::array.0", align 1
  %5 = getelementptr inbounds nuw i8, ptr %1, i64 8
  %6 = load i64, ptr %5, align 8
  %7 = add i64 %6, 8
  %8 = getelementptr inbounds nuw i8, ptr %1, i64 16
  %9 = load i64, ptr %8, align 8
  %10 = icmp ugt i64 %7, %9
  %.pre.i.i = load ptr, ptr %1, align 8
  br i1 %10, label %11, label %_ZN4llvm16itanium_demangle12OutputBuffer4growEm.exit.i.i

11:                                               ; preds = %3
  %12 = add i64 %6, 1000
  %13 = shl i64 %9, 1
  %spec.select.i.i.i = tail call i64 @llvm.umax.i64(i64 %13, i64 %12)
  store i64 %spec.select.i.i.i, ptr %8, align 8
  %14 = tail call ptr @realloc(ptr noundef %.pre.i.i, i64 noundef %spec.select.i.i.i) #16
  store ptr %14, ptr %1, align 8
  %15 = icmp eq ptr %14, null
  br i1 %15, label %16, label %._ZN4llvm16itanium_demangle12OutputBuffer4growEm.exit_crit_edge.i.i

._ZN4llvm16itanium_demangle12OutputBuffer4growEm.exit_crit_edge.i.i: ; preds = %11
  %.pre4.i.i = load i64, ptr %5, align 8
  br label %_ZN4llvm16itanium_demangle12OutputBuffer4growEm.exit.i.i

16:                                               ; preds = %11
  tail call void @abort() #17
  unreachable

_ZN4llvm16itanium_demangle12OutputBuffer4growEm.exit.i.i: ; preds = %._ZN4llvm16itanium_demangle12OutputBuffer4growEm.exit_crit_edge.i.i, %3
  %17 = phi i64 [ %6, %3 ], [ %.pre4.i.i, %._ZN4llvm16itanium_demangle12OutputBuffer4growEm.exit_crit_edge.i.i ]
  %18 = phi ptr [ %.pre.i.i, %3 ], [ %14, %._ZN4llvm16itanium_demangle12OutputBuffer4growEm.exit_crit_edge.i.i ]
  %19 = getelementptr inbounds i8, ptr %18, i64 %17
  store i64 8874180803503027808, ptr %19, align 1
  %20 = load i64, ptr %5, align 8
  %21 = add i64 %20, 8
  store i64 %21, ptr %5, align 8
  %22 = getelementptr inbounds nuw i8, ptr %0, i64 24
  %23 = load i64, ptr %22, align 8
  call void @llvm.lifetime.start.p0(i64 21, ptr nonnull %4)
  br label %24

24:                                               ; preds = %24, %_ZN4llvm16itanium_demangle12OutputBuffer4growEm.exit.i.i
  %.08.i.i.i = phi i64 [ %23, %_ZN4llvm16itanium_demangle12OutputBuffer4growEm.exit.i.i ], [ %28, %24 ]
  %.0.idx.i.i.i = phi i64 [ 21, %_ZN4llvm16itanium_demangle12OutputBuffer4growEm.exit.i.i ], [ %.0.add.i.i.i, %24 ]
  %25 = urem i64 %.08.i.i.i, 10
  %26 = trunc nuw nsw i64 %25 to i8
  %27 = or disjoint i8 %26, 48
  %.0.add.i.i.i = add nsw i64 %.0.idx.i.i.i, -1
  %.ptr.i.i.i = getelementptr inbounds i8, ptr %4, i64 %.0.add.i.i.i
  store i8 %27, ptr %.ptr.i.i.i, align 1
  %28 = udiv i64 %.08.i.i.i, 10
  %.not.i.i.i = icmp ult i64 %.08.i.i.i, 10
  br i1 %.not.i.i.i, label %29, label %24, !llvm.loop !6

29:                                               ; preds = %24
  %.ptr.i.i.i.le = getelementptr inbounds i8, ptr %4, i64 %.0.add.i.i.i
  %gepdiff.i.i.i = sub nsw i64 22, %.0.idx.i.i.i
  %.not.i.i.i.i = icmp eq i64 %.0.add.i.i.i, 21
  br i1 %.not.i.i.i.i, label %_ZN4llvm16itanium_demangle12OutputBufferlsEm.exit, label %30

30:                                               ; preds = %29
  %31 = add i64 %21, %gepdiff.i.i.i
  %32 = load i64, ptr %8, align 8
  %33 = icmp ugt i64 %31, %32
  %.pre.i.i.i.i = load ptr, ptr %1, align 8
  br i1 %33, label %34, label %_ZN4llvm16itanium_demangle12OutputBuffer4growEm.exit.i.i.i.i

34:                                               ; preds = %30
  %35 = add i64 %31, 992
  %36 = shl i64 %32, 1
  %spec.select.i.i.i.i.i = tail call i64 @llvm.umax.i64(i64 %36, i64 %35)
  store i64 %spec.select.i.i.i.i.i, ptr %8, align 8
  %37 = tail call ptr @realloc(ptr noundef %.pre.i.i.i.i, i64 noundef %spec.select.i.i.i.i.i) #16
  store ptr %37, ptr %1, align 8
  %38 = icmp eq ptr %37, null
  br i1 %38, label %39, label %._ZN4llvm16itanium_demangle12OutputBuffer4growEm.exit_crit_edge.i.i.i.i

._ZN4llvm16itanium_demangle12OutputBuffer4growEm.exit_crit_edge.i.i.i.i: ; preds = %34
  %.pre4.i.i.i.i = load i64, ptr %5, align 8
  br label %_ZN4llvm16itanium_demangle12OutputBuffer4growEm.exit.i.i.i.i

39:                                               ; preds = %34
  tail call void @abort() #17
  unreachable

_ZN4llvm16itanium_demangle12OutputBuffer4growEm.exit.i.i.i.i: ; preds = %._ZN4llvm16itanium_demangle12OutputBuffer4growEm.exit_crit_edge.i.i.i.i, %30
  %40 = phi i64 [ %21, %30 ], [ %.pre4.i.i.i.i, %._ZN4llvm16itanium_demangle12OutputBuffer4growEm.exit_crit_edge.i.i.i.i ]
  %41 = phi ptr [ %.pre.i.i.i.i, %30 ], [ %37, %._ZN4llvm16itanium_demangle12OutputBuffer4growEm.exit_crit_edge.i.i.i.i ]
  %42 = getelementptr inbounds i8, ptr %41, i64 %40
  call void @llvm.memcpy.p0.p0.i64(ptr align 1 %42, ptr nonnull align 1 %.ptr.i.i.i.le, i64 %gepdiff.i.i.i, i1 false)
  %43 = load i64, ptr %5, align 8
  %44 = add i64 %43, %gepdiff.i.i.i
  store i64 %44, ptr %5, align 8
  br label %_ZN4llvm16itanium_demangle12OutputBufferlsEm.exit

_ZN4llvm16itanium_demangle12OutputBufferlsEm.exit: ; preds = %29, %_ZN4llvm16itanium_demangle12OutputBuffer4growEm.exit.i.i.i.i
  %45 = phi i64 [ %21, %29 ], [ %44, %_ZN4llvm16itanium_demangle12OutputBuffer4growEm.exit.i.i.i.i ]
  call void @llvm.lifetime.end.p0(i64 21, ptr nonnull %4)
  %46 = add i64 %45, 9
  %47 = load i64, ptr %8, align 8
  %48 = icmp ugt i64 %46, %47
  %.pre.i.i3 = load ptr, ptr %1, align 8
  br i1 %48, label %49, label %_ZN4llvm16itanium_demangle12OutputBuffer4growEm.exit.i.i4

49:                                               ; preds = %_ZN4llvm16itanium_demangle12OutputBufferlsEm.exit
  %50 = add i64 %45, 1001
  %51 = shl i64 %47, 1
  %spec.select.i.i.i5 = tail call i64 @llvm.umax.i64(i64 %51, i64 %50)
  store i64 %spec.select.i.i.i5, ptr %8, align 8
  %52 = tail call ptr @realloc(ptr noundef %.pre.i.i3, i64 noundef %spec.select.i.i.i5) #16
  store ptr %52, ptr %1, align 8
  %53 = icmp eq ptr %52, null
  br i1 %53, label %54, label %._ZN4llvm16itanium_demangle12OutputBuffer4growEm.exit_crit_edge.i.i6

._ZN4llvm16itanium_demangle12OutputBuffer4growEm.exit_crit_edge.i.i6: ; preds = %49
  %.pre4.i.i7 = load i64, ptr %5, align 8
  br label %_ZN4llvm16itanium_demangle12OutputBuffer4growEm.exit.i.i4

54:                                               ; preds = %49
  tail call void @abort() #17
  unreachable

_ZN4llvm16itanium_demangle12OutputBuffer4growEm.exit.i.i4: ; preds = %._ZN4llvm16itanium_demangle12OutputBuffer4growEm.exit_crit_edge.i.i6, %_ZN4llvm16itanium_demangle12OutputBufferlsEm.exit
  %55 = phi i64 [ %45, %_ZN4llvm16itanium_demangle12OutputBufferlsEm.exit ], [ %.pre4.i.i7, %._ZN4llvm16itanium_demangle12OutputBuffer4growEm.exit_crit_edge.i.i6 ]
  %56 = phi ptr [ %.pre.i.i3, %_ZN4llvm16itanium_demangle12OutputBufferlsEm.exit ], [ %52, %._ZN4llvm16itanium_demangle12OutputBuffer4growEm.exit_crit_edge.i.i6 ]
  %57 = getelementptr inbounds i8, ptr %56, i64 %55
  tail call void @llvm.memcpy.p0.p0.i64(ptr noundef nonnull align 1 dereferenceable(9) %57, ptr noundef nonnull align 1 dereferenceable(9) @.str.145, i64 9, i1 false)
  %58 = load i64, ptr %5, align 8
  %59 = add i64 %58, 9
  store i64 %59, ptr %5, align 8
  ret void
}